; Function Attrs: mustprogress nofree norecurse nosync nounwind willreturn memory(argmem: readwrite) uwtable
define hidden noundef zeroext i1 @_ZN7nanogui13TabWidgetBase17mouse_enter_eventERKNS_5ArrayIiLm2EEEb(ptr nocapture noundef nonnull align 8 dereferenceable(416) %0, ptr nocapture nonnull readnone align 4 %1, i1 zeroext %2) unnamed_addr #9 align 2 {
  %4 = getelementptr inbounds i8, ptr %0, i64 285
  %5 = load i8, ptr %4, align 1
  %6 = and i8 %5, 1
  %.not = icmp eq i8 %6, 0
  br i1 %.not, label %13, label %7

7:                                                ; preds = %3
  %8 = getelementptr inbounds i8, ptr %0, i64 276
  %9 = load i32, ptr %8, align 4
  %10 = icmp sgt i32 %9, -1
  br i1 %10, label %11, label %13

11:                                               ; preds = %7
  store i32 -1, ptr %8, align 4
  %12 = getelementptr inbounds i8, ptr %0, i64 280
  store i32 -1, ptr %12, align 8
  br label %13

13:                                               ; preds = %3, %7, %11
  %.0 = phi i1 [ true, %11 ], [ false, %7 ], [ false, %3 ]
  ret i1 %.0
}